target datalayout = "e-m:e-p270:32:32-p271:32:32-p272:64:64-i64:64-i128:128-f80:128-n8:16:32:64-S128"
target triple = "x86_64-pc-linux-gnu"

%struct.rb_econv_t = type { i32, i32, ptr, ptr, ptr, i64, ptr, ptr, ptr, ptr, ptr, ptr, i32, i32, i32, i32, ptr, %struct.anon, ptr, ptr }
%struct.anon = type { i32, ptr, ptr, ptr, ptr, i64, i64 }
%struct.rb_econv_elem_t = type { ptr, ptr, ptr, ptr, ptr, i32 }
%struct.rb_transcoding = type { ptr, i32, i32, i32, i64, i8, i32, i64, i64, %union.anon, i64, i64, %union.anon.0, %union.rb_transcoding_state_t }
%union.anon = type { ptr }
%union.anon.0 = type { ptr }
%union.rb_transcoding_state_t = type { ptr }

; Function Attrs: nounwind sspstrong uwtable
define dso_local i32 @rb_econv_putbackable(ptr noundef %0) #0 {
  %2 = alloca i32, align 4
  %3 = alloca ptr, align 8
  store ptr %0, ptr %3, align 8, !tbaa !30
  %4 = load ptr, ptr %3, align 8, !tbaa !30
  %5 = getelementptr inbounds nuw %struct.rb_econv_t, ptr %4, i32 0, i32 14
  %6 = load i32, ptr %5, align 8, !tbaa !47
  %7 = icmp eq i32 %6, 0
  br i1 %7, label %8, label %9

8:                                                ; preds = %1
  store i32 0, ptr %2, align 4
  br label %30

9:                                                ; preds = %1
  %10 = load ptr, ptr %3, align 8, !tbaa !30
  %11 = getelementptr inbounds nuw %struct.rb_econv_t, ptr %10, i32 0, i32 11
  %12 = load ptr, ptr %11, align 8, !tbaa !48
  %13 = getelementptr %struct.rb_econv_elem_t, ptr %12, i64 0
  %14 = getelementptr inbounds nuw %struct.rb_econv_elem_t, ptr %13, i32 0, i32 0
  %15 = load ptr, ptr %14, align 8, !tbaa !49
  %16 = getelementptr inbounds nuw %struct.rb_transcoding, ptr %15, i32 0, i32 8
  %17 = load i64, ptr %16, align 8, !tbaa !74
  %18 = icmp sgt i64 %17, 2147483647
  br i1 %18, label %19, label %20

19:                                               ; preds = %9
  store i32 2147483647, ptr %2, align 4
  br label %30

20:                                               ; preds = %9
  %21 = load ptr, ptr %3, align 8, !tbaa !30
  %22 = getelementptr inbounds nuw %struct.rb_econv_t, ptr %21, i32 0, i32 11
  %23 = load ptr, ptr %22, align 8, !tbaa !48
  %24 = getelementptr %struct.rb_econv_elem_t, ptr %23, i64 0
  %25 = getelementptr inbounds nuw %struct.rb_econv_elem_t, ptr %24, i32 0, i32 0
  %26 = load ptr, ptr %25, align 8, !tbaa !49
  %27 = getelementptr inbounds nuw %struct.rb_transcoding, ptr %26, i32 0, i32 8
  %28 = load i64, ptr %27, align 8, !tbaa !74
  %29 = trunc i64 %28 to i32
  store i32 %29, ptr %2, align 4
  br label %30

30:                                               ; preds = %20, %19, %8
  %31 = load i32, ptr %2, align 4
  ret i32 %31
}