; Function Attrs: mustprogress nofree norecurse nosync nounwind sspstrong willreturn memory(read, inaccessiblemem: none) uwtable
define dso_local i32 @rb_econv_putbackable(ptr noundef readonly captures(none) %0) local_unnamed_addr #4 {
  %2 = getelementptr inbounds nuw i8, ptr %0, i64 96
  %3 = load i32, ptr %2, align 8, !tbaa !46
  %4 = icmp eq i32 %3, 0
  br i1 %4, label %11, label %5

5:                                                ; preds = %1
  %6 = getelementptr inbounds nuw i8, ptr %0, i64 80
  %7 = load ptr, ptr %6, align 8, !tbaa !47
  %8 = load ptr, ptr %7, align 8, !tbaa !63
  %9 = getelementptr inbounds nuw i8, ptr %8, i64 48
  %10 = load i64, ptr %9, align 8, !tbaa !94
  %spec.select4 = tail call i64 @llvm.smin.i64(i64 %10, i64 2147483647)
  %spec.select = trunc i64 %spec.select4 to i32
  br label %11

11:                                               ; preds = %5, %1
  %.0 = phi i32 [ 0, %1 ], [ %spec.select, %5 ]
  ret i32 %.0
}